target datalayout = "e-m:e-p270:32:32-p271:32:32-p272:64:64-i64:64-i128:128-f80:128-n8:16:32:64-S128"
target triple = "x86_64-pc-linux-gnu"

%struct.anon = type { i8 }
%class.anon = type { i8 }

@_ZL6hb_min = internal constant %struct.anon zeroinitializer, align 1

; Function Attrs: mustprogress nounwind uwtable
define internal noundef i64 @"_ZZ12hb_parse_intPPKcS0_PibENK3$_0clES0_PPc"(ptr noundef nonnull align 1 dereferenceable(1) %0, ptr noundef %1, ptr noundef %2) #1 align 2 {
  %4 = alloca ptr, align 8
  %5 = alloca ptr, align 8
  %6 = alloca ptr, align 8
  store ptr %0, ptr %4, align 8
  store ptr %1, ptr %5, align 8
  store ptr %2, ptr %6, align 8
  %7 = load ptr, ptr %5, align 8
  %8 = load ptr, ptr %6, align 8
  %9 = call i64 @strtol(ptr noundef %7, ptr noundef %8, i32 noundef 10) #5
  ret i64 %9
}

; Function Attrs: mustprogress nounwind uwtable
define internal noundef nonnull align 4 dereferenceable(4) ptr @"_ZNK3$_1clIjjEEDTqulefp_fp0_fp_fp0_EOT_OT0_"(ptr noundef nonnull align 1 dereferenceable(1) %0, ptr noundef nonnull align 4 dereferenceable(4) %1, ptr noundef nonnull align 4 dereferenceable(4) %2) #1 align 2 {
  %4 = alloca ptr, align 8
  %5 = alloca ptr, align 8
  %6 = alloca ptr, align 8
  store ptr %0, ptr %4, align 8
  store ptr %1, ptr %5, align 8
  store ptr %2, ptr %6, align 8
  %7 = load ptr, ptr %5, align 8
  %8 = load i32, ptr %7, align 4
  %9 = load ptr, ptr %6, align 8
  %10 = load i32, ptr %9, align 4
  %11 = icmp ule i32 %8, %10
  br i1 %11, label %12, label %14

12:                                               ; preds = %3
  %13 = load ptr, ptr %5, align 8
  br label %16

14:                                               ; preds = %3
  %15 = load ptr, ptr %6, align 8
  br label %16

16:                                               ; preds = %14, %12
  %17 = phi ptr [ %13, %12 ], [ %15, %14 ]
  ret ptr %17
}

; Function Attrs: mustprogress nounwind uwtable
define internal noundef i32 @_ZL12ARRAY_LENGTHIcLj32EEjRAT0__KT_(ptr noundef nonnull align 1 dereferenceable(32) %0) #1 {
  %2 = alloca ptr, align 8
  store ptr %0, ptr %2, align 8
  ret i32 32
}

; Function Attrs: mustprogress uwtable
define internal noundef zeroext i1 @"_ZL13_parse_numberIiZ12hb_parse_intPPKcS1_PibE3$_0EbS2_S1_PT_bT0_"(ptr noundef %0, ptr noundef %1, ptr noundef %2, i1 noundef zeroext %3) #0 {
  %5 = alloca i1, align 1
  %6 = alloca %class.anon, align 1
  %7 = alloca ptr, align 8
  %8 = alloca ptr, align 8
  %9 = alloca ptr, align 8
  %10 = alloca i8, align 1
  %11 = alloca [32 x i8], align 16
  %12 = alloca i32, align 4
  %13 = alloca i32, align 4
  %14 = alloca i32, align 4
  %15 = alloca ptr, align 8
  %16 = alloca ptr, align 8
  store ptr %0, ptr %7, align 8
  store ptr %1, ptr %8, align 8
  store ptr %2, ptr %9, align 8
  %17 = zext i1 %3 to i8
  store i8 %17, ptr %10, align 1
  %18 = call noundef i32 @_ZL12ARRAY_LENGTHIcLj32EEjRAT0__KT_(ptr noundef nonnull align 1 dereferenceable(32) %11)
  %19 = sub i32 %18, 1
  store i32 %19, ptr %13, align 4
  %20 = load ptr, ptr %8, align 8
  %21 = load ptr, ptr %7, align 8
  %22 = load ptr, ptr %21, align 8
  %23 = ptrtoint ptr %20 to i64
  %24 = ptrtoint ptr %22 to i64
  %25 = sub i64 %23, %24
  %26 = trunc i64 %25 to i32
  store i32 %26, ptr %14, align 4
  %27 = call noundef nonnull align 4 dereferenceable(4) ptr @"_ZNK3$_1clIjjEEDTqulefp_fp0_fp_fp0_EOT_OT0_"(ptr noundef nonnull align 1 dereferenceable(1) @_ZL6hb_min, ptr noundef nonnull align 4 dereferenceable(4) %13, ptr noundef nonnull align 4 dereferenceable(4) %14)
  %28 = load i32, ptr %27, align 4
  store i32 %28, ptr %12, align 4
  %29 = getelementptr inbounds [32 x i8], ptr %11, i64 0, i64 0
  %30 = load ptr, ptr %7, align 8
  %31 = load ptr, ptr %30, align 8
  %32 = load i32, ptr %12, align 4
  %33 = zext i32 %32 to i64
  %34 = call ptr @strncpy(ptr noundef %29, ptr noundef %31, i64 noundef %33) #5
  %35 = load i32, ptr %12, align 4
  %36 = zext i32 %35 to i64
  %37 = getelementptr inbounds [32 x i8], ptr %11, i64 0, i64 %36
  store i8 0, ptr %37, align 1
  %38 = getelementptr inbounds [32 x i8], ptr %11, i64 0, i64 0
  store ptr %38, ptr %15, align 8
  %39 = load ptr, ptr %15, align 8
  store ptr %39, ptr %16, align 8
  %40 = call ptr @__errno_location() #6
  store i32 0, ptr %40, align 4
  %41 = load ptr, ptr %15, align 8
  %42 = call noundef i64 @"_ZZ12hb_parse_intPPKcS0_PibENK3$_0clES0_PPc"(ptr noundef nonnull align 1 dereferenceable(1) %6, ptr noundef %41, ptr noundef %16)
  %43 = trunc i64 %42 to i32
  %44 = load ptr, ptr %9, align 8
  store i32 %43, ptr %44, align 4
  %45 = call ptr @__errno_location() #6
  %46 = load i32, ptr %45, align 4
  %47 = icmp ne i32 %46, 0
  br i1 %47, label %68, label %48

48:                                               ; preds = %4
  %49 = load ptr, ptr %15, align 8
  %50 = load ptr, ptr %16, align 8
  %51 = icmp eq ptr %49, %50
  br i1 %51, label %68, label %52

52:                                               ; preds = %48
  %53 = load i8, ptr %10, align 1
  %54 = trunc i8 %53 to i1
  br i1 %54, label %55, label %69

55:                                               ; preds = %52
  %56 = load ptr, ptr %16, align 8
  %57 = load ptr, ptr %15, align 8
  %58 = ptrtoint ptr %56 to i64
  %59 = ptrtoint ptr %57 to i64
  %60 = sub i64 %58, %59
  %61 = load ptr, ptr %8, align 8
  %62 = load ptr, ptr %7, align 8
  %63 = load ptr, ptr %62, align 8
  %64 = ptrtoint ptr %61 to i64
  %65 = ptrtoint ptr %63 to i64
  %66 = sub i64 %64, %65
  %67 = icmp ne i64 %60, %66
  br i1 %67, label %68, label %69

68:                                               ; preds = %55, %48, %4
  store i1 false, ptr %5, align 1
  br label %78

69:                                               ; preds = %55, %52
  %70 = load ptr, ptr %16, align 8
  %71 = load ptr, ptr %15, align 8
  %72 = ptrtoint ptr %70 to i64
  %73 = ptrtoint ptr %71 to i64
  %74 = sub i64 %72, %73
  %75 = load ptr, ptr %7, align 8
  %76 = load ptr, ptr %75, align 8
  %77 = getelementptr inbounds i8, ptr %76, i64 %74
  store ptr %77, ptr %75, align 8
  store i1 true, ptr %5, align 1
  br label %78

78:                                               ; preds = %69, %68
  %79 = load i1, ptr %5, align 1
  ret i1 %79
}

; Function Attrs: mustprogress uwtable
define hidden noundef zeroext i1 @_Z12hb_parse_intPPKcS0_Pib(ptr noundef %0, ptr noundef %1, ptr noundef %2, i1 noundef zeroext %3) #0 {
  %5 = alloca ptr, align 8
  %6 = alloca ptr, align 8
  %7 = alloca ptr, align 8
  %8 = alloca i8, align 1
  store ptr %0, ptr %5, align 8
  store ptr %1, ptr %6, align 8
  store ptr %2, ptr %7, align 8
  %9 = zext i1 %3 to i8
  store i8 %9, ptr %8, align 1
  %10 = load ptr, ptr %5, align 8
  %11 = load ptr, ptr %6, align 8
  %12 = load ptr, ptr %7, align 8
  %13 = load i8, ptr %8, align 1
  %14 = trunc i8 %13 to i1
  %15 = call noundef zeroext i1 @"_ZL13_parse_numberIiZ12hb_parse_intPPKcS1_PibE3$_0EbS2_S1_PT_bT0_"(ptr noundef %10, ptr noundef %11, ptr noundef %12, i1 noundef zeroext %14)
  ret i1 %15
}