; Function Attrs: mustprogress nofree nounwind willreturn uwtable
define hidden noundef zeroext i1 @_Z12hb_parse_intPPKcS0_Pib(ptr nocapture noundef %0, ptr noundef %1, ptr nocapture noundef writeonly %2, i1 noundef zeroext %3) local_unnamed_addr #0 {
  %5 = alloca [32 x i8], align 16
  %6 = alloca ptr, align 8
  call void @llvm.lifetime.start.p0(i64 32, ptr nonnull %5)
  call void @llvm.lifetime.start.p0(i64 8, ptr nonnull %6)
  %7 = load ptr, ptr %0, align 8
  %8 = ptrtoint ptr %1 to i64
  %9 = ptrtoint ptr %7 to i64
  %10 = sub i64 %8, %9
  %11 = trunc i64 %10 to i32
  %.sroa.speculated.i = tail call i32 @llvm.umin.i32(i32 %11, i32 31)
  %12 = zext nneg i32 %.sroa.speculated.i to i64
  %13 = call ptr @strncpy(ptr noundef nonnull %5, ptr noundef %7, i64 noundef %12) #8
  %14 = getelementptr inbounds [32 x i8], ptr %5, i64 0, i64 %12
  store i8 0, ptr %14, align 1
  store ptr %5, ptr %6, align 8
  %15 = tail call ptr @__errno_location() #9
  store i32 0, ptr %15, align 4
  %16 = call noundef i64 @strtol(ptr noundef nonnull %5, ptr noundef nonnull %6, i32 noundef 10) #8
  %17 = trunc i64 %16 to i32
  store i32 %17, ptr %2, align 4
  %18 = load i32, ptr %15, align 4
  %.not.i = icmp eq i32 %18, 0
  br i1 %.not.i, label %19, label %"_ZL13_parse_numberIiZ12hb_parse_intPPKcS1_PibE3$_0EbS2_S1_PT_bT0_.exit"

19:                                               ; preds = %4
  %20 = load ptr, ptr %6, align 8
  %21 = icmp eq ptr %5, %20
  br i1 %21, label %"_ZL13_parse_numberIiZ12hb_parse_intPPKcS1_PibE3$_0EbS2_S1_PT_bT0_.exit", label %22

22:                                               ; preds = %19
  %.pre.i = load ptr, ptr %0, align 8
  %23 = ptrtoint ptr %20 to i64
  %24 = ptrtoint ptr %5 to i64
  %25 = sub i64 %23, %24
  %26 = ptrtoint ptr %.pre.i to i64
  %27 = sub i64 %8, %26
  %.not17.i = icmp ne i64 %25, %27
  %or.cond.not.i = select i1 %3, i1 %.not17.i, i1 false
  br i1 %or.cond.not.i, label %"_ZL13_parse_numberIiZ12hb_parse_intPPKcS1_PibE3$_0EbS2_S1_PT_bT0_.exit", label %._crit_edge.i

._crit_edge.i:                                    ; preds = %22
  %28 = getelementptr inbounds i8, ptr %.pre.i, i64 %25
  store ptr %28, ptr %0, align 8
  br label %"_ZL13_parse_numberIiZ12hb_parse_intPPKcS1_PibE3$_0EbS2_S1_PT_bT0_.exit"

"_ZL13_parse_numberIiZ12hb_parse_intPPKcS1_PibE3$_0EbS2_S1_PT_bT0_.exit": ; preds = %4, %19, %22, %._crit_edge.i
  %.0.i = phi i1 [ true, %._crit_edge.i ], [ false, %19 ], [ false, %4 ], [ false, %22 ]
  call void @llvm.lifetime.end.p0(i64 32, ptr nonnull %5)
  call void @llvm.lifetime.end.p0(i64 8, ptr nonnull %6)
  ret i1 %.0.i
}